; Function Attrs: mustprogress uwtable
define dso_local void @_ZN4Luau16ConstraintSolver7unblockENS_7NotNullIKNS_10ConstraintEEE(ptr noundef nonnull align 8 dereferenceable(1032) %0, ptr %1) local_unnamed_addr #4 align 2 personality ptr @__gxx_personality_v0 {
  %3 = alloca %"class.Luau::Variant.198", align 8
  %4 = getelementptr inbounds nuw i8, ptr %0, i64 752
  %5 = load ptr, ptr %4, align 8, !tbaa !286
  %.not = icmp eq ptr %5, null
  br i1 %.not, label %7, label %6

6:                                                ; preds = %2
  tail call void @_ZN4Luau9DcrLogger8popBlockENS_7NotNullIKNS_10ConstraintEEE(ptr noundef nonnull align 8 dereferenceable(936) %5, ptr %1)
  br label %7

7:                                                ; preds = %6, %2
  store i32 2, ptr %3, align 8, !tbaa !107
  %8 = getelementptr inbounds nuw i8, ptr %3, i64 8
  store ptr %1, ptr %8, align 8, !tbaa !81
  invoke void @_ZN4Luau16ConstraintSolver8unblock_ENS_7VariantIJPKNS_4TypeEPKNS_11TypePackVarEPKNS_10ConstraintEEEE(ptr noundef nonnull align 8 dereferenceable(1032) %0, ptr noundef nonnull %3)
          to label %9 unwind label %17

9:                                                ; preds = %7
  %10 = load i32, ptr %3, align 8, !tbaa !107
  %11 = sext i32 %10 to i64
  %12 = getelementptr inbounds [3 x ptr], ptr @_ZN4Luau7VariantIJPKNS_4TypeEPKNS_11TypePackVarEPKNS_10ConstraintEEE9tableDtorE, i64 0, i64 %11
  %13 = load ptr, ptr %12, align 8, !tbaa !15
  invoke void %13(ptr noundef nonnull %8)
          to label %_ZN4Luau7VariantIJPKNS_4TypeEPKNS_11TypePackVarEPKNS_10ConstraintEEED2Ev.exit unwind label %14

14:                                               ; preds = %9
  %15 = landingpad { ptr, i32 }
          catch ptr null
  %16 = extractvalue { ptr, i32 } %15, 0
  call void @__clang_call_terminate(ptr %16) #32
  unreachable

_ZN4Luau7VariantIJPKNS_4TypeEPKNS_11TypePackVarEPKNS_10ConstraintEEED2Ev.exit: ; preds = %9
  ret void

17:                                               ; preds = %7
  %18 = landingpad { ptr, i32 }
          cleanup
  %19 = load i32, ptr %3, align 8, !tbaa !107
  %20 = sext i32 %19 to i64
  %21 = getelementptr inbounds [3 x ptr], ptr @_ZN4Luau7VariantIJPKNS_4TypeEPKNS_11TypePackVarEPKNS_10ConstraintEEE9tableDtorE, i64 0, i64 %20
  %22 = load ptr, ptr %21, align 8, !tbaa !15
  invoke void %22(ptr noundef nonnull %8)
          to label %_ZN4Luau7VariantIJPKNS_4TypeEPKNS_11TypePackVarEPKNS_10ConstraintEEED2Ev.exit2 unwind label %23

23:                                               ; preds = %17
  %24 = landingpad { ptr, i32 }
          catch ptr null
  %25 = extractvalue { ptr, i32 } %24, 0
  call void @__clang_call_terminate(ptr %25) #32
  unreachable

_ZN4Luau7VariantIJPKNS_4TypeEPKNS_11TypePackVarEPKNS_10ConstraintEEED2Ev.exit2: ; preds = %17
  resume { ptr, i32 } %18
}